target datalayout = "e-m:e-p270:32:32-p271:32:32-p272:64:64-i64:64-i128:128-f80:128-n8:16:32:64-S128"
target triple = "x86_64-pc-linux-gnu"

%"class.folly::IPAddressV6" = type <{ %"union.folly::IPAddressV6::AddressStorage", i16, [2 x i8] }>
%"union.folly::IPAddressV6::AddressStorage" = type { %struct.in6_addr }
%struct.in6_addr = type { %union.anon }
%union.anon = type { [4 x i32] }
%"class.std::__cxx11::basic_string" = type { %"struct.std::__cxx11::basic_string<char>::_Alloc_hider", i64, %union.anon.0 }
%"struct.std::__cxx11::basic_string<char>::_Alloc_hider" = type { ptr }
%union.anon.0 = type { i64, [8 x i8] }

@.str = private unnamed_addr constant [21 x i8] c"basic_string::append\00", align 1

; Function Attrs: mustprogress nounwind uwtable
define linkonce_odr noundef i64 @_ZNKSt15__new_allocatorIcE11_M_max_sizeEv(ptr noundef nonnull align 1 dereferenceable(1) %0) #3 comdat align 2 {
  %2 = alloca ptr, align 8
  store ptr %0, ptr %2, align 8, !tbaa !31
  ret i64 9223372036854775807
}

; Function Attrs: mustprogress nounwind uwtable
define linkonce_odr noundef i64 @_ZNKSt15__new_allocatorIcE8max_sizeEv(ptr noundef nonnull align 1 dereferenceable(1) %0) #3 comdat align 2 {
  %2 = alloca ptr, align 8
  store ptr %0, ptr %2, align 8, !tbaa !31
  %3 = load ptr, ptr %2, align 8
  %4 = call noundef i64 @_ZNKSt15__new_allocatorIcE11_M_max_sizeEv(ptr noundef nonnull align 1 dereferenceable(1) %3) #13
  ret i64 %4
}

; Function Attrs: noinline noreturn nounwind uwtable
define linkonce_odr hidden void @__clang_call_terminate(ptr noundef %0) #5 comdat {
  %2 = call ptr @__cxa_begin_catch(ptr %0) #13
  call void @_ZSt9terminatev() #34
  unreachable
}

; Function Attrs: mustprogress nounwind uwtable
define linkonce_odr noundef i64 @_ZNSt16allocator_traitsISaIcEE8max_sizeERKS0_(ptr noundef nonnull align 1 dereferenceable(1) %0) #3 comdat align 2 {
  %2 = alloca ptr, align 8
  store ptr %0, ptr %2, align 8, !tbaa !29
  %3 = load ptr, ptr %2, align 8, !tbaa !29
  %4 = call noundef i64 @_ZNKSt15__new_allocatorIcE8max_sizeEv(ptr noundef nonnull align 1 dereferenceable(1) %3) #13
  ret i64 %4
}

; Function Attrs: mustprogress nounwind uwtable
define available_externally noundef nonnull align 1 dereferenceable(1) ptr @_ZNKSt7__cxx1112basic_stringIcSt11char_traitsIcESaIcEE16_M_get_allocatorEv(ptr noundef nonnull align 8 dereferenceable(32) %0) #3 align 2 {
  %2 = alloca ptr, align 8
  store ptr %0, ptr %2, align 8, !tbaa !16
  %3 = load ptr, ptr %2, align 8
  %4 = getelementptr inbounds nuw %"class.std::__cxx11::basic_string", ptr %3, i32 0, i32 0
  ret ptr %4
}

; Function Attrs: mustprogress nounwind uwtable
define available_externally noundef i64 @_ZNKSt7__cxx1112basic_stringIcSt11char_traitsIcESaIcEE4sizeEv(ptr noundef nonnull align 8 dereferenceable(32) %0) #3 align 2 {
  %2 = alloca ptr, align 8
  store ptr %0, ptr %2, align 8, !tbaa !16
  %3 = load ptr, ptr %2, align 8
  %4 = getelementptr inbounds nuw %"class.std::__cxx11::basic_string", ptr %3, i32 0, i32 1
  %5 = load i64, ptr %4, align 8, !tbaa !23
  ret i64 %5
}

; Function Attrs: mustprogress nounwind uwtable
define available_externally noundef i64 @_ZNKSt7__cxx1112basic_stringIcSt11char_traitsIcESaIcEE8max_sizeEv(ptr noundef nonnull align 8 dereferenceable(32) %0) #3 align 2 personality ptr @__gxx_personality_v0 {
  %2 = alloca ptr, align 8
  store ptr %0, ptr %2, align 8, !tbaa !16
  %3 = load ptr, ptr %2, align 8
  %4 = invoke noundef nonnull align 1 dereferenceable(1) ptr @_ZNKSt7__cxx1112basic_stringIcSt11char_traitsIcESaIcEE16_M_get_allocatorEv(ptr noundef nonnull align 8 dereferenceable(32) %3)
          to label %5 unwind label %9

5:                                                ; preds = %1
  %6 = call noundef i64 @_ZNSt16allocator_traitsISaIcEE8max_sizeERKS0_(ptr noundef nonnull align 1 dereferenceable(1) %4) #13
  %7 = sub i64 %6, 1
  %8 = udiv i64 %7, 2
  ret i64 %8

9:                                                ; preds = %1
  %10 = landingpad { ptr, i32 }
          catch ptr null
  %11 = extractvalue { ptr, i32 } %10, 0
  call void @__clang_call_terminate(ptr %11) #34
  unreachable
}

; Function Attrs: mustprogress uwtable
define available_externally void @_ZNKSt7__cxx1112basic_stringIcSt11char_traitsIcESaIcEE15_M_check_lengthEmmPKc(ptr noundef nonnull align 8 dereferenceable(32) %0, i64 noundef %1, i64 noundef %2, ptr noundef %3) #0 align 2 {
  %5 = alloca ptr, align 8
  %6 = alloca i64, align 8
  %7 = alloca i64, align 8
  %8 = alloca ptr, align 8
  store ptr %0, ptr %5, align 8, !tbaa !16
  store i64 %1, ptr %6, align 8, !tbaa !12
  store i64 %2, ptr %7, align 8, !tbaa !12
  store ptr %3, ptr %8, align 8, !tbaa !28
  %9 = load ptr, ptr %5, align 8
  %10 = call noundef i64 @_ZNKSt7__cxx1112basic_stringIcSt11char_traitsIcESaIcEE8max_sizeEv(ptr noundef nonnull align 8 dereferenceable(32) %9) #13
  %11 = call noundef i64 @_ZNKSt7__cxx1112basic_stringIcSt11char_traitsIcESaIcEE4sizeEv(ptr noundef nonnull align 8 dereferenceable(32) %9) #13
  %12 = load i64, ptr %6, align 8, !tbaa !12
  %13 = sub i64 %11, %12
  %14 = sub i64 %10, %13
  %15 = load i64, ptr %7, align 8, !tbaa !12
  %16 = icmp ult i64 %14, %15
  br i1 %16, label %17, label %19

17:                                               ; preds = %4
  %18 = load ptr, ptr %8, align 8, !tbaa !28
  call void @_ZSt20__throw_length_errorPKc(ptr noundef %18) #32
  unreachable

19:                                               ; preds = %4
  ret void
}

; Function Attrs: inlinehint mustprogress nounwind uwtable
define linkonce_odr void @_ZN5folly6detail18writeIntegerStringItTnT_Lt4ETnS2_Lt16ELb1EbEEvS2_PPc(i16 noundef zeroext %0, ptr noundef %1) #8 comdat {
  %3 = alloca i16, align 2
  %4 = alloca ptr, align 8
  %5 = alloca ptr, align 8
  %6 = alloca i16, align 2
  %7 = alloca i16, align 2
  %8 = alloca i8, align 1
  %9 = alloca i16, align 2
  store i16 %0, ptr %3, align 2, !tbaa !20
  store ptr %1, ptr %4, align 8, !tbaa !48
  call void @llvm.lifetime.start.p0(i64 8, ptr %5) #13
  %10 = load ptr, ptr %4, align 8, !tbaa !48
  %11 = load ptr, ptr %10, align 8, !tbaa !28
  store ptr %11, ptr %5, align 8, !tbaa !28
  call void @llvm.lifetime.start.p0(i64 2, ptr %6) #13
  store i16 1, ptr %6, align 2, !tbaa !20
  call void @llvm.lifetime.start.p0(i64 2, ptr %7) #13
  store i16 1, ptr %7, align 2, !tbaa !20
  br label %12

12:                                               ; preds = %22, %2
  %13 = load i16, ptr %7, align 2, !tbaa !20
  %14 = zext i16 %13 to i32
  %15 = icmp slt i32 %14, 4
  br i1 %15, label %17, label %16

16:                                               ; preds = %12
  call void @llvm.lifetime.end.p0(i64 2, ptr %7) #13
  br label %25

17:                                               ; preds = %12
  %18 = load i16, ptr %6, align 2, !tbaa !20
  %19 = zext i16 %18 to i32
  %20 = mul nsw i32 %19, 16
  %21 = trunc i32 %20 to i16
  store i16 %21, ptr %6, align 2, !tbaa !20
  br label %22

22:                                               ; preds = %17
  %23 = load i16, ptr %7, align 2, !tbaa !20
  %24 = add i16 %23, 1
  store i16 %24, ptr %7, align 2, !tbaa !20
  br label %12, !llvm.loop !489

25:                                               ; preds = %16
  call void @llvm.lifetime.start.p0(i64 1, ptr %8) #13
  store i8 1, ptr %8, align 1, !tbaa !44
  br label %26

26:                                               ; preds = %69, %25
  %27 = load i16, ptr %6, align 2, !tbaa !20
  %28 = icmp ne i16 %27, 0
  br i1 %28, label %29, label %74

29:                                               ; preds = %26
  %30 = load i8, ptr %8, align 1, !tbaa !44, !range !46, !noundef !47
  %31 = trunc i8 %30 to i1
  br i1 %31, label %38, label %32

32:                                               ; preds = %29
  %33 = load i16, ptr %6, align 2, !tbaa !20
  %34 = zext i16 %33 to i32
  %35 = load i16, ptr %3, align 2, !tbaa !20
  %36 = zext i16 %35 to i32
  %37 = icmp sle i32 %34, %36
  br i1 %37, label %38, label %69

38:                                               ; preds = %32, %29
  call void @llvm.lifetime.start.p0(i64 2, ptr %9) #13
  %39 = load i16, ptr %3, align 2, !tbaa !20
  %40 = zext i16 %39 to i32
  %41 = load i16, ptr %6, align 2, !tbaa !20
  %42 = zext i16 %41 to i32
  %43 = sdiv i32 %40, %42
  %44 = trunc i32 %43 to i16
  store i16 %44, ptr %9, align 2, !tbaa !20
  %45 = load i16, ptr %9, align 2, !tbaa !20
  %46 = zext i16 %45 to i32
  %47 = icmp slt i32 %46, 10
  br i1 %47, label %48, label %53

48:                                               ; preds = %38
  %49 = load i16, ptr %9, align 2, !tbaa !20
  %50 = zext i16 %49 to i32
  %51 = add nsw i32 %50, 48
  %52 = trunc i32 %51 to i16
  store i16 %52, ptr %9, align 2, !tbaa !20
  br label %58

53:                                               ; preds = %38
  %54 = load i16, ptr %9, align 2, !tbaa !20
  %55 = zext i16 %54 to i32
  %56 = add nsw i32 %55, 87
  %57 = trunc i32 %56 to i16
  store i16 %57, ptr %9, align 2, !tbaa !20
  br label %58

58:                                               ; preds = %53, %48
  %59 = load i16, ptr %9, align 2, !tbaa !20
  %60 = trunc i16 %59 to i8
  %61 = load ptr, ptr %5, align 8, !tbaa !28
  %62 = getelementptr inbounds nuw i8, ptr %61, i32 1
  store ptr %62, ptr %5, align 8, !tbaa !28
  store i8 %60, ptr %61, align 1, !tbaa !22
  %63 = load i16, ptr %6, align 2, !tbaa !20
  %64 = zext i16 %63 to i32
  %65 = load i16, ptr %3, align 2, !tbaa !20
  %66 = zext i16 %65 to i32
  %67 = srem i32 %66, %64
  %68 = trunc i32 %67 to i16
  store i16 %68, ptr %3, align 2, !tbaa !20
  store i8 1, ptr %8, align 1, !tbaa !44
  call void @llvm.lifetime.end.p0(i64 2, ptr %9) #13
  br label %69

69:                                               ; preds = %58, %32
  %70 = load i16, ptr %6, align 2, !tbaa !20
  %71 = zext i16 %70 to i32
  %72 = sdiv i32 %71, 16
  %73 = trunc i32 %72 to i16
  store i16 %73, ptr %6, align 2, !tbaa !20
  br label %26, !llvm.loop !490

74:                                               ; preds = %26
  %75 = load ptr, ptr %5, align 8, !tbaa !28
  %76 = load ptr, ptr %4, align 8, !tbaa !48
  store ptr %75, ptr %76, align 8, !tbaa !28
  call void @llvm.lifetime.end.p0(i64 1, ptr %8) #13
  call void @llvm.lifetime.end.p0(i64 2, ptr %6) #13
  call void @llvm.lifetime.end.p0(i64 8, ptr %5) #13
  ret void
}

; Function Attrs: inlinehint mustprogress nounwind uwtable
define internal noundef zeroext i16 @_ZL10__bswap_16t(i16 noundef zeroext %0) #8 {
  %2 = alloca i16, align 2
  store i16 %0, ptr %2, align 2, !tbaa !20
  %3 = load i16, ptr %2, align 2, !tbaa !20
  %4 = zext i16 %3 to i32
  %5 = ashr i32 %4, 8
  %6 = and i32 %5, 255
  %7 = load i16, ptr %2, align 2, !tbaa !20
  %8 = zext i16 %7 to i32
  %9 = and i32 %8, 255
  %10 = shl i32 %9, 8
  %11 = or i32 %6, %10
  %12 = trunc i32 %11 to i16
  ret i16 %12
}

; Function Attrs: mustprogress uwtable
define available_externally noundef nonnull align 8 dereferenceable(32) ptr @_ZNSt7__cxx1112basic_stringIcSt11char_traitsIcESaIcEE6appendEPKcm(ptr noundef nonnull align 8 dereferenceable(32) %0, ptr noundef %1, i64 noundef %2) #0 align 2 {
  %4 = alloca ptr, align 8
  %5 = alloca ptr, align 8
  %6 = alloca i64, align 8
  store ptr %0, ptr %4, align 8, !tbaa !16
  store ptr %1, ptr %5, align 8, !tbaa !28
  store i64 %2, ptr %6, align 8, !tbaa !12
  %7 = load ptr, ptr %4, align 8
  %8 = load i64, ptr %6, align 8, !tbaa !12
  call void @_ZNKSt7__cxx1112basic_stringIcSt11char_traitsIcESaIcEE15_M_check_lengthEmmPKc(ptr noundef nonnull align 8 dereferenceable(32) %7, i64 noundef 0, i64 noundef %8, ptr noundef @.str)
  %9 = load ptr, ptr %5, align 8, !tbaa !28
  %10 = load i64, ptr %6, align 8, !tbaa !12
  %11 = call noundef nonnull align 8 dereferenceable(32) ptr @_ZNSt7__cxx1112basic_stringIcSt11char_traitsIcESaIcEE9_M_appendEPKcm(ptr noundef nonnull align 8 dereferenceable(32) %7, ptr noundef %9, i64 noundef %10)
  ret ptr %11
}

; Function Attrs: inlinehint mustprogress uwtable
define linkonce_odr noundef i64 @_ZN5folly6detail22fastIpv6ToBufferUnsafeERK8in6_addrPc(ptr noundef nonnull align 4 dereferenceable(16) %0, ptr noundef %1) #1 comdat {
  %3 = alloca ptr, align 8
  %4 = alloca ptr, align 8
  %5 = alloca ptr, align 8
  %6 = alloca ptr, align 8
  %7 = alloca i32, align 4
  store ptr %0, ptr %3, align 8, !tbaa !151
  store ptr %1, ptr %4, align 8, !tbaa !28
  call void @llvm.lifetime.start.p0(i64 8, ptr %5) #13
  %8 = load ptr, ptr %3, align 8, !tbaa !151
  %9 = getelementptr inbounds nuw %struct.in6_addr, ptr %8, i32 0, i32 0
  store ptr %9, ptr %5, align 8, !tbaa !411
  call void @llvm.lifetime.start.p0(i64 8, ptr %6) #13
  %10 = load ptr, ptr %4, align 8, !tbaa !28
  store ptr %10, ptr %6, align 8, !tbaa !28
  call void @llvm.lifetime.start.p0(i64 4, ptr %7) #13
  store i32 0, ptr %7, align 4, !tbaa !18
  br label %11

11:                                               ; preds = %28, %2
  %12 = load i32, ptr %7, align 4, !tbaa !18
  %13 = icmp slt i32 %12, 8
  br i1 %13, label %15, label %14

14:                                               ; preds = %11
  call void @llvm.lifetime.end.p0(i64 4, ptr %7) #13
  br label %31

15:                                               ; preds = %11
  %16 = load ptr, ptr %5, align 8, !tbaa !411
  %17 = load i32, ptr %7, align 4, !tbaa !18
  %18 = sext i32 %17 to i64
  %19 = getelementptr inbounds i16, ptr %16, i64 %18
  %20 = load i16, ptr %19, align 2, !tbaa !20
  %21 = call noundef zeroext i16 @_ZL10__bswap_16t(i16 noundef zeroext %20)
  call void @_ZN5folly6detail18writeIntegerStringItTnT_Lt4ETnS2_Lt16ELb1EbEEvS2_PPc(i16 noundef zeroext %21, ptr noundef %6)
  %22 = load i32, ptr %7, align 4, !tbaa !18
  %23 = icmp ne i32 %22, 7
  br i1 %23, label %24, label %27

24:                                               ; preds = %15
  %25 = load ptr, ptr %6, align 8, !tbaa !28
  %26 = getelementptr inbounds nuw i8, ptr %25, i32 1
  store ptr %26, ptr %6, align 8, !tbaa !28
  store i8 58, ptr %25, align 1, !tbaa !22
  br label %27

27:                                               ; preds = %24, %15
  br label %28

28:                                               ; preds = %27
  %29 = load i32, ptr %7, align 4, !tbaa !18
  %30 = add nsw i32 %29, 1
  store i32 %30, ptr %7, align 4, !tbaa !18
  br label %11, !llvm.loop !488

31:                                               ; preds = %14
  %32 = load ptr, ptr %6, align 8, !tbaa !28
  %33 = load ptr, ptr %4, align 8, !tbaa !28
  %34 = ptrtoint ptr %32 to i64
  %35 = ptrtoint ptr %33 to i64
  %36 = sub i64 %34, %35
  call void @llvm.lifetime.end.p0(i64 8, ptr %6) #13
  call void @llvm.lifetime.end.p0(i64 8, ptr %5) #13
  ret i64 %36
}

; Function Attrs: inlinehint mustprogress uwtable
define linkonce_odr void @_ZN5folly6detail22fastIpv6AppendToStringERK8in6_addrRNSt7__cxx1112basic_stringIcSt11char_traitsIcESaIcEEE(ptr noundef nonnull align 4 dereferenceable(16) %0, ptr noundef nonnull align 8 dereferenceable(32) %1) #1 comdat {
  %3 = alloca ptr, align 8
  %4 = alloca ptr, align 8
  %5 = alloca [40 x i8], align 16
  store ptr %0, ptr %3, align 8, !tbaa !151
  store ptr %1, ptr %4, align 8, !tbaa !16
  call void @llvm.lifetime.start.p0(i64 40, ptr %5) #13
  %6 = load ptr, ptr %4, align 8, !tbaa !16
  %7 = getelementptr inbounds [40 x i8], ptr %5, i64 0, i64 0
  %8 = load ptr, ptr %3, align 8, !tbaa !151
  %9 = getelementptr inbounds [40 x i8], ptr %5, i64 0, i64 0
  %10 = call noundef i64 @_ZN5folly6detail22fastIpv6ToBufferUnsafeERK8in6_addrPc(ptr noundef nonnull align 4 dereferenceable(16) %8, ptr noundef %9)
  %11 = call noundef nonnull align 8 dereferenceable(32) ptr @_ZNSt7__cxx1112basic_stringIcSt11char_traitsIcESaIcEE6appendEPKcm(ptr noundef nonnull align 8 dereferenceable(32) %6, ptr noundef %7, i64 noundef %10)
  call void @llvm.lifetime.end.p0(i64 40, ptr %5) #13
  ret void
}

; Function Attrs: mustprogress uwtable
define void @_ZNK5folly11IPAddressV622toFullyQualifiedAppendERNSt7__cxx1112basic_stringIcSt11char_traitsIcESaIcEEE(ptr noundef nonnull align 4 dereferenceable(18) %0, ptr noundef nonnull align 8 dereferenceable(32) %1) #0 align 2 {
  %3 = alloca ptr, align 8
  %4 = alloca ptr, align 8
  store ptr %0, ptr %3, align 8, !tbaa !7
  store ptr %1, ptr %4, align 8, !tbaa !16
  %5 = load ptr, ptr %3, align 8
  %6 = getelementptr inbounds nuw %"class.folly::IPAddressV6", ptr %5, i32 0, i32 0
  %7 = load ptr, ptr %4, align 8, !tbaa !16
  call void @_ZN5folly6detail22fastIpv6AppendToStringERK8in6_addrRNSt7__cxx1112basic_stringIcSt11char_traitsIcESaIcEEE(ptr noundef nonnull align 4 dereferenceable(16) %6, ptr noundef nonnull align 8 dereferenceable(32) %7)
  ret void
}