; Function Attrs: mustprogress uwtable
define void @_ZNK5folly11IPAddressV622toFullyQualifiedAppendERNSt7__cxx1112basic_stringIcSt11char_traitsIcESaIcEEE(ptr noundef nonnull readonly align 4 captures(none) dereferenceable(18) %0, ptr noundef nonnull align 8 dereferenceable(32) %1) local_unnamed_addr #0 align 2 personality ptr @__gxx_personality_v0 {
  %3 = alloca [40 x i8], align 16
  call void @llvm.lifetime.start.p0(i64 40, ptr nonnull %3) #37
  br label %4

4:                                                ; preds = %17, %2
  %indvars.iv.i.i = phi i64 [ 0, %2 ], [ %indvars.iv.next.i.i, %17 ]
  %.0910.i.i = phi ptr [ %3, %2 ], [ %18, %17 ]
  %5 = getelementptr inbounds nuw i16, ptr %0, i64 %indvars.iv.i.i
  %6 = load i16, ptr %5, align 2, !tbaa !62
  %rev.i.i.i = call noundef i16 @llvm.bswap.i16(i16 %6)
  %scevgep.i = getelementptr i8, ptr %.0910.i.i, i64 3
  br label %.lr.ph.i.i.i

.lr.ph.i.i.i:                                     ; preds = %.lr.ph.i.i.i, %4
  %.12234.i.i.i = phi i16 [ %16, %.lr.ph.i.i.i ], [ 4096, %4 ]
  %.02333.i.i.i = phi ptr [ %15, %.lr.ph.i.i.i ], [ %.0910.i.i, %4 ]
  %.02532.i.i.i = phi i16 [ %14, %.lr.ph.i.i.i ], [ %rev.i.i.i, %4 ]
  %7 = call range(i16 0, 17) i16 @llvm.cttz.i16(i16 %.12234.i.i.i, i1 true)
  %8 = lshr i16 %.02532.i.i.i, %7
  %9 = icmp ult i16 %8, 10
  %10 = or disjoint i16 %8, 48
  %11 = add i16 %8, 87
  %.0.i.i.i = select i1 %9, i16 %10, i16 %11
  %12 = trunc i16 %.0.i.i.i to i8
  store i8 %12, ptr %.02333.i.i.i, align 1, !tbaa !9
  %13 = add nsw i16 %.12234.i.i.i, -1
  %14 = and i16 %.02532.i.i.i, %13
  %15 = getelementptr inbounds nuw i8, ptr %.02333.i.i.i, i64 1
  %16 = lshr i16 %.12234.i.i.i, 4
  %exitcond.i = icmp eq ptr %.02333.i.i.i, %scevgep.i
  br i1 %exitcond.i, label %_ZN5folly6detail18writeIntegerStringItTnT_Lt4ETnS2_Lt16ELb1EbEEvS2_PPc.exit.i.i, label %.lr.ph.i.i.i, !llvm.loop !265

_ZN5folly6detail18writeIntegerStringItTnT_Lt4ETnS2_Lt16ELb1EbEEvS2_PPc.exit.i.i: ; preds = %.lr.ph.i.i.i
  %.not.i.i = icmp eq i64 %indvars.iv.i.i, 7
  br i1 %.not.i.i, label %_ZN5folly6detail22fastIpv6ToBufferUnsafeERK8in6_addrPc.exit.i, label %17

17:                                               ; preds = %_ZN5folly6detail18writeIntegerStringItTnT_Lt4ETnS2_Lt16ELb1EbEEvS2_PPc.exit.i.i
  %18 = getelementptr i8, ptr %.0910.i.i, i64 5
  store i8 58, ptr %15, align 1, !tbaa !9
  %indvars.iv.next.i.i = add nuw nsw i64 %indvars.iv.i.i, 1
  br label %4

_ZN5folly6detail22fastIpv6ToBufferUnsafeERK8in6_addrPc.exit.i: ; preds = %_ZN5folly6detail18writeIntegerStringItTnT_Lt4ETnS2_Lt16ELb1EbEEvS2_PPc.exit.i.i
  %19 = ptrtoint ptr %15 to i64
  %20 = ptrtoint ptr %3 to i64
  %21 = sub i64 %19, %20
  %22 = getelementptr inbounds nuw i8, ptr %1, i64 8
  %23 = load i64, ptr %22, align 8, !tbaa !20
  %24 = sub i64 4611686018427387903, %23
  %25 = icmp ult i64 %24, %21
  br i1 %25, label %26, label %_ZN5folly6detail22fastIpv6AppendToStringERK8in6_addrRNSt7__cxx1112basic_stringIcSt11char_traitsIcESaIcEEE.exit

26:                                               ; preds = %_ZN5folly6detail22fastIpv6ToBufferUnsafeERK8in6_addrPc.exit.i
  call void @_ZSt20__throw_length_errorPKc(ptr noundef nonnull @.str) #40
  unreachable

_ZN5folly6detail22fastIpv6AppendToStringERK8in6_addrRNSt7__cxx1112basic_stringIcSt11char_traitsIcESaIcEEE.exit: ; preds = %_ZN5folly6detail22fastIpv6ToBufferUnsafeERK8in6_addrPc.exit.i
  %27 = call noundef nonnull align 8 dereferenceable(32) ptr @_ZNSt7__cxx1112basic_stringIcSt11char_traitsIcESaIcEE9_M_appendEPKcm(ptr noundef nonnull align 8 dereferenceable(32) %1, ptr noundef nonnull %3, i64 noundef %21)
  call void @llvm.lifetime.end.p0(i64 40, ptr nonnull %3) #37
  ret void
}